; Function Attrs: nounwind sspstrong uwtable
define hidden range(i64 0, 21) i64 @rb_str_neq_internal(i64 noundef %0, i64 noundef %1) local_unnamed_addr #0 {
  %3 = inttoptr i64 %0 to ptr
  %4 = getelementptr inbounds nuw i8, ptr %3, i64 16
  %5 = load i64, ptr %4, align 8, !tbaa !117
  %6 = inttoptr i64 %1 to ptr
  %7 = getelementptr inbounds nuw i8, ptr %6, i64 16
  %8 = load i64, ptr %7, align 8, !tbaa !117
  %.not.i = icmp eq i64 %5, %8
  br i1 %.not.i, label %9, label %rb_str_eql_internal.exit.thread

9:                                                ; preds = %2
  %10 = tail call i32 @rb_str_comparable(i64 noundef %0, i64 noundef %1) #5
  %.not13.i = icmp eq i32 %10, 0
  br i1 %.not13.i, label %rb_str_eql_internal.exit.thread, label %11

11:                                               ; preds = %9
  %12 = load i64, ptr %3, align 8, !tbaa !11, !noalias !158
  %13 = and i64 %12, 8192
  %.not.i.i.i = icmp eq i64 %13, 0
  %14 = getelementptr inbounds nuw i8, ptr %3, i64 24
  br i1 %.not.i.i.i, label %RSTRING_PTR.exit.i, label %15

15:                                               ; preds = %11
  %.sroa.2.0.copyload.i.i = load ptr, ptr %14, align 8
  br label %RSTRING_PTR.exit.i

RSTRING_PTR.exit.i:                               ; preds = %15, %11
  %.sroa.2.0.i.i = phi ptr [ %.sroa.2.0.copyload.i.i, %15 ], [ %14, %11 ]
  %16 = load i64, ptr %6, align 8, !tbaa !11, !noalias !161
  %17 = and i64 %16, 8192
  %.not.i.i14.i = icmp eq i64 %17, 0
  %18 = getelementptr inbounds nuw i8, ptr %6, i64 24
  br i1 %.not.i.i14.i, label %RSTRING_PTR.exit17.i, label %19

19:                                               ; preds = %RSTRING_PTR.exit.i
  %.sroa.2.0.copyload.i15.i = load ptr, ptr %18, align 8
  br label %RSTRING_PTR.exit17.i

RSTRING_PTR.exit17.i:                             ; preds = %19, %RSTRING_PTR.exit.i
  %.sroa.2.0.i16.i = phi ptr [ %.sroa.2.0.copyload.i15.i, %19 ], [ %18, %RSTRING_PTR.exit.i ]
  %20 = icmp eq ptr %.sroa.2.0.i.i, %.sroa.2.0.i16.i
  br i1 %20, label %rb_str_eql_internal.exit, label %21

21:                                               ; preds = %RSTRING_PTR.exit17.i
  %bcmp.i = tail call i32 @bcmp(ptr %.sroa.2.0.i.i, ptr %.sroa.2.0.i16.i, i64 %5)
  %22 = icmp eq i32 %bcmp.i, 0
  br i1 %22, label %rb_str_eql_internal.exit, label %rb_str_eql_internal.exit.thread

rb_str_eql_internal.exit.thread:                  ; preds = %2, %9, %21
  br label %rb_str_eql_internal.exit

rb_str_eql_internal.exit:                         ; preds = %21, %RSTRING_PTR.exit17.i, %rb_str_eql_internal.exit.thread
  %23 = phi i64 [ 20, %rb_str_eql_internal.exit.thread ], [ 0, %RSTRING_PTR.exit17.i ], [ 0, %21 ]
  ret i64 %23
}